target datalayout = "e-m:e-p270:32:32-p271:32:32-p272:64:64-i64:64-i128:128-f80:128-n8:16:32:64-S128"
target triple = "x86_64-pc-linux-gnu"

%struct.strbuf = type { i64, i64, ptr }

@fsck_msg_types = internal global %struct.strbuf { i64 0, i64 0, ptr @strbuf_slopbuf }, align 8

; Function Attrs: nounwind uwtable
define internal i32 @fetch_pack_config_cb(ptr noundef %0, ptr noundef %1, ptr noundef %2, ptr noundef %3) #0 {
  %5 = alloca i32, align 4
  %6 = alloca ptr, align 8
  %7 = alloca ptr, align 8
  %8 = alloca ptr, align 8
  %9 = alloca ptr, align 8
  %10 = alloca i32, align 4
  %11 = alloca i32, align 4
  store ptr %0, ptr %6, align 8, !tbaa !4
  store ptr %1, ptr %7, align 8, !tbaa !4
  store ptr %2, ptr %8, align 8, !tbaa !141
  store ptr %3, ptr %9, align 8, !tbaa !106
  call void @llvm.lifetime.start.p0(i64 4, ptr %10) #11
  %12 = load ptr, ptr %6, align 8, !tbaa !4
  %13 = load ptr, ptr %7, align 8, !tbaa !4
  %14 = call i32 @fetch_pack_fsck_config(ptr noundef %12, ptr noundef %13, ptr noundef @fsck_msg_types)
  store i32 %14, ptr %10, align 4, !tbaa !19
  %15 = load i32, ptr %10, align 4, !tbaa !19
  %16 = icmp sgt i32 %15, 0
  br i1 %16, label %17, label %23

17:                                               ; preds = %4
  %18 = load ptr, ptr %6, align 8, !tbaa !4
  %19 = load ptr, ptr %7, align 8, !tbaa !4
  %20 = load ptr, ptr %8, align 8, !tbaa !141
  %21 = load ptr, ptr %9, align 8, !tbaa !106
  %22 = call i32 @git_default_config(ptr noundef %18, ptr noundef %19, ptr noundef %20, ptr noundef %21)
  store i32 %22, ptr %5, align 4
  store i32 1, ptr %11, align 4
  br label %25

23:                                               ; preds = %4
  %24 = load i32, ptr %10, align 4, !tbaa !19
  store i32 %24, ptr %5, align 4
  store i32 1, ptr %11, align 4
  br label %25

25:                                               ; preds = %23, %17
  call void @llvm.lifetime.end.p0(i64 4, ptr %10) #11
  %26 = load i32, ptr %5, align 4
  ret i32 %26
}