; Function Attrs: nounwind uwtable
define internal i32 @fetch_pack_config_cb(ptr noundef %0, ptr noundef %1, ptr noundef %2, ptr noundef %3) #0 {
  %5 = tail call i32 @fetch_pack_fsck_config(ptr noundef %0, ptr noundef %1, ptr noundef nonnull @fsck_msg_types)
  %6 = icmp sgt i32 %5, 0
  br i1 %6, label %7, label %9

7:                                                ; preds = %4
  %8 = tail call i32 @git_default_config(ptr noundef %0, ptr noundef %1, ptr noundef %2, ptr noundef %3) #20
  br label %9

9:                                                ; preds = %4, %7
  %.0 = phi i32 [ %8, %7 ], [ %5, %4 ]
  ret i32 %.0
}